; Function Attrs: mustprogress nounwind uwtable
define hidden void @_ZNK15G1CollectionSet7iterateEP19G1HeapRegionClosure(ptr noundef nonnull align 8 dereferenceable(160) %0, ptr noundef %1) local_unnamed_addr #1 align 2 {
  %3 = getelementptr inbounds i8, ptr %0, i64 96
  %4 = load volatile i32, ptr %3, align 8
  tail call void asm sideeffect "", "~{memory},~{dirflag},~{fpsr},~{flags}"() #15, !srcloc !6
  %.not = icmp eq i32 %4, 0
  br i1 %.not, label %.loopexit, label %.lr.ph

.lr.ph:                                           ; preds = %2
  %5 = getelementptr inbounds i8, ptr %0, i64 88
  %wide.trip.count = zext i32 %4 to i64
  br label %7

6:                                                ; preds = %7
  %indvars.iv.next = add nuw nsw i64 %indvars.iv, 1
  %exitcond.not = icmp eq i64 %indvars.iv.next, %wide.trip.count
  br i1 %exitcond.not, label %.loopexit, label %7, !llvm.loop !7

7:                                                ; preds = %.lr.ph, %6
  %indvars.iv = phi i64 [ 0, %.lr.ph ], [ %indvars.iv.next, %6 ]
  %8 = load ptr, ptr %0, align 8
  %9 = load ptr, ptr %5, align 8
  %10 = getelementptr inbounds i32, ptr %9, i64 %indvars.iv
  %11 = load i32, ptr %10, align 4
  %12 = zext i32 %11 to i64
  %13 = getelementptr inbounds i8, ptr %8, i64 496
  %14 = load ptr, ptr %13, align 8
  %15 = getelementptr inbounds ptr, ptr %14, i64 %12
  %16 = load ptr, ptr %15, align 8
  %17 = load ptr, ptr %1, align 8
  %18 = load ptr, ptr %17, align 8
  %19 = tail call noundef zeroext i1 %18(ptr noundef nonnull align 8 dereferenceable(9) %1, ptr noundef %16) #15
  br i1 %19, label %20, label %6

20:                                               ; preds = %7
  %21 = getelementptr inbounds i8, ptr %1, i64 8
  store i8 0, ptr %21, align 8
  br label %.loopexit

.loopexit:                                        ; preds = %6, %2, %20
  ret void
}